; Function Attrs: mustprogress nofree norecurse nosync nounwind willreturn memory(readwrite, inaccessiblemem: none) uwtable
define void @_ZN6node_t10set_prefixEPKh(ptr noundef nonnull readonly align 8 captures(none) dereferenceable(8) %0, ptr noundef readonly captures(none) %1) local_unnamed_addr #6 align 2 {
  %3 = load ptr, ptr %0, align 8, !tbaa !3
  %4 = getelementptr inbounds nuw i8, ptr %3, i64 12
  %5 = getelementptr inbounds nuw i8, ptr %3, i64 4
  %.0.copyload.i = load i32, ptr %5, align 1
  %6 = zext i32 %.0.copyload.i to i64
  tail call void @llvm.memcpy.p0.p0.i64(ptr nonnull align 1 %4, ptr align 1 %1, i64 %6, i1 false)
  ret void
}